target datalayout = "e-m:e-p270:32:32-p271:32:32-p272:64:64-i64:64-i128:128-f80:128-n8:16:32:64-S128"
target triple = "x86_64-pc-linux-gnu"

%struct.ReplyParserCallbacks = type { ptr, ptr, ptr, ptr, ptr, ptr, ptr, ptr, ptr, ptr, ptr, ptr, ptr, ptr, ptr, ptr }
%struct.CallReply = type { ptr, ptr, ptr, i64, i32, i32, i64, %union.anon, ptr, ptr }
%union.anon = type { %struct.anon }
%struct.anon = type { ptr, ptr }
%struct.ReplyParser = type { ptr, %struct.ReplyParserCallbacks }

; Function Attrs: nounwind uwtable
define internal void @callReplyParse(ptr noundef %0) #0 {
  %2 = alloca ptr, align 8
  %3 = alloca %struct.ReplyParser, align 8
  store ptr %0, ptr %2, align 8, !tbaa !5
  %4 = load ptr, ptr %2, align 8, !tbaa !5
  %5 = getelementptr inbounds nuw %struct.CallReply, ptr %4, i32 0, i32 5
  %6 = load i32, ptr %5, align 4, !tbaa !10
  %7 = and i32 %6, 2
  %8 = icmp ne i32 %7, 0
  br i1 %8, label %9, label %10

9:                                                ; preds = %1
  br label %22

10:                                               ; preds = %1
  call void @llvm.lifetime.start.p0(i64 136, ptr %3) #6
  %11 = getelementptr inbounds nuw %struct.ReplyParser, ptr %3, i32 0, i32 0
  %12 = load ptr, ptr %2, align 8, !tbaa !5
  %13 = getelementptr inbounds nuw %struct.CallReply, ptr %12, i32 0, i32 2
  %14 = load ptr, ptr %13, align 8, !tbaa !28
  store ptr %14, ptr %11, align 8, !tbaa !29
  %15 = getelementptr inbounds nuw %struct.ReplyParser, ptr %3, i32 0, i32 1
  call void @llvm.memcpy.p0.p0.i64(ptr align 8 %15, ptr align 8 @DefaultParserCallbacks, i64 128, i1 false), !tbaa.struct !32
  %16 = load ptr, ptr %2, align 8, !tbaa !5
  %17 = call i32 @parseReply(ptr noundef %3, ptr noundef %16)
  %18 = load ptr, ptr %2, align 8, !tbaa !5
  %19 = getelementptr inbounds nuw %struct.CallReply, ptr %18, i32 0, i32 5
  %20 = load i32, ptr %19, align 4, !tbaa !10
  %21 = or i32 %20, 2
  store i32 %21, ptr %19, align 4, !tbaa !10
  call void @llvm.lifetime.end.p0(i64 136, ptr %3) #6
  br label %22

22:                                               ; preds = %10, %9
  ret void
}

; Function Attrs: nounwind uwtable
define dso_local ptr @callReplyGetBigNumber(ptr noundef %0, ptr noundef %1) #0 {
  %3 = alloca ptr, align 8
  %4 = alloca ptr, align 8
  %5 = alloca ptr, align 8
  store ptr %0, ptr %4, align 8, !tbaa !5
  store ptr %1, ptr %5, align 8, !tbaa !33
  %6 = load ptr, ptr %4, align 8, !tbaa !5
  call void @callReplyParse(ptr noundef %6)
  %7 = load ptr, ptr %4, align 8, !tbaa !5
  %8 = getelementptr inbounds nuw %struct.CallReply, ptr %7, i32 0, i32 4
  %9 = load i32, ptr %8, align 8, !tbaa !16
  %10 = icmp ne i32 %9, 9
  br i1 %10, label %11, label %12

11:                                               ; preds = %2
  store ptr null, ptr %3, align 8
  br label %20

12:                                               ; preds = %2
  %13 = load ptr, ptr %4, align 8, !tbaa !5
  %14 = getelementptr inbounds nuw %struct.CallReply, ptr %13, i32 0, i32 6
  %15 = load i64, ptr %14, align 8, !tbaa !20
  %16 = load ptr, ptr %5, align 8, !tbaa !33
  store i64 %15, ptr %16, align 8, !tbaa !19
  %17 = load ptr, ptr %4, align 8, !tbaa !5
  %18 = getelementptr inbounds nuw %struct.CallReply, ptr %17, i32 0, i32 7
  %19 = load ptr, ptr %18, align 8, !tbaa !21
  store ptr %19, ptr %3, align 8
  br label %20

20:                                               ; preds = %12, %11
  %21 = load ptr, ptr %3, align 8
  ret ptr %21
}